target datalayout = "e-m:e-p270:32:32-p271:32:32-p272:64:64-i64:64-i128:128-f80:128-n8:16:32:64-S128"
target triple = "x86_64-pc-linux-gnu"

%struct.dt_bilateral_t = type { i64, i64, i64, i32, i32, i32, i32, i32, float, float, float, float, ptr, [56 x i8] }

; Function Attrs: nounwind uwtable
define void @dt_bilateral_free(ptr noundef %0) #0 {
  %2 = alloca ptr, align 8
  store ptr %0, ptr %2, align 8, !tbaa !6
  %3 = load ptr, ptr %2, align 8, !tbaa !6
  %4 = icmp ne ptr %3, null
  br i1 %4, label %6, label %5

5:                                                ; preds = %1
  br label %11

6:                                                ; preds = %1
  %7 = load ptr, ptr %2, align 8, !tbaa !6
  %8 = getelementptr inbounds nuw %struct.dt_bilateral_t, ptr %7, i32 0, i32 12
  %9 = load ptr, ptr %8, align 64, !tbaa !31
  call void @free(ptr noundef %9) #9
  %10 = load ptr, ptr %2, align 8, !tbaa !6
  call void @free(ptr noundef %10) #9
  br label %11

11:                                               ; preds = %6, %5
  ret void
}