; Function Attrs: mustprogress nounwind willreturn uwtable
define void @dt_bilateral_free(ptr noundef %0) local_unnamed_addr #12 {
  %.not = icmp eq ptr %0, null
  br i1 %.not, label %5, label %2

2:                                                ; preds = %1
  %3 = getelementptr inbounds nuw i8, ptr %0, i64 64
  %4 = load ptr, ptr %3, align 64, !tbaa !26
  tail call void @free(ptr noundef %4) #17
  tail call void @free(ptr noundef nonnull %0) #17
  br label %5

5:                                                ; preds = %1, %2
  ret void
}